; Function Attrs: nounwind sspstrong uwtable
define internal i64 @ossl_x509_get_serial(i64 noundef %0) #0 {
  %2 = tail call ptr @rb_check_typeddata(i64 noundef %0, ptr noundef nonnull @ossl_x509_type) #5
  %.not = icmp eq ptr %2, null
  br i1 %.not, label %3, label %5

3:                                                ; preds = %1
  %4 = load i64, ptr @rb_eRuntimeError, align 8, !tbaa !6
  tail call void (i64, ptr, ...) @ossl_raise(i64 noundef %4, ptr noundef nonnull @.str) #6
  unreachable

5:                                                ; preds = %1
  %6 = tail call ptr @X509_get_serialNumber(ptr noundef nonnull %2) #5
  %7 = tail call i64 @asn1integer_to_num(ptr noundef %6) #5
  ret i64 %7
}